target datalayout = "e-m:e-p270:32:32-p271:32:32-p272:64:64-i64:64-i128:128-f80:128-n8:16:32:64-S128"
target triple = "x86_64-pc-linux-gnu"

%struct.H5VL_blob_specific_args_t = type { i32, %union.anon.13 }
%union.anon.13 = type { %struct.anon.14 }
%struct.anon.14 = type { ptr }

@H5_libterm_g = external global i8, align 1
@.str = private unnamed_addr constant [101 x i8] c"generated/home/dtcxzyw/WorkSpace/Projects/compilers/llvm-opt-benchmark/bench/hdf5/hdf5/src/H5Tvlen.c\00", align 1
@H5T_init_g = external global i8, align 1
@H5E_CANTSET_g = external global i64, align 8
@H5E_DATATYPE_g = external global i64, align 8
@__func__.H5T__vlen_disk_setnull = private unnamed_addr constant [23 x i8] c"H5T__vlen_disk_setnull\00", align 1
@H5E_CANTREMOVE_g = external global i64, align 8
@.str.25 = private unnamed_addr constant [40 x i8] c"unable to remove background heap object\00", align 1
@.str.26 = private unnamed_addr constant [33 x i8] c"unable to set a blob ID to 'nil'\00", align 1
@__func__.H5T__vlen_disk_delete = private unnamed_addr constant [22 x i8] c"H5T__vlen_disk_delete\00", align 1
@.str.29 = private unnamed_addr constant [22 x i8] c"unable to delete blob\00", align 1

; Function Attrs: nounwind uwtable
define internal i32 @H5T__vlen_disk_delete(ptr noundef %0, ptr noundef %1) #0 {
  %3 = alloca i32, align 4
  %4 = alloca ptr, align 8
  %5 = alloca ptr, align 8
  %6 = alloca ptr, align 8
  %7 = alloca i32, align 4
  %8 = alloca i8, align 1
  %9 = alloca i64, align 8
  %10 = alloca %struct.H5VL_blob_specific_args_t, align 8
  %11 = alloca i32, align 4
  store ptr %0, ptr %4, align 8, !tbaa !30
  store ptr %1, ptr %5, align 8, !tbaa !38
  call void @llvm.lifetime.start.p0(i64 8, ptr %6) #9
  %12 = load ptr, ptr %5, align 8, !tbaa !38
  store ptr %12, ptr %6, align 8, !tbaa !53
  call void @llvm.lifetime.start.p0(i64 4, ptr %7) #9
  store i32 0, ptr %7, align 4, !tbaa !31
  call void @llvm.lifetime.start.p0(i64 1, ptr %8) #9
  store i8 0, ptr %8, align 1, !tbaa !10
  %13 = load i8, ptr @H5T_init_g, align 1, !tbaa !10, !range !12, !noundef !13
  %14 = trunc i8 %13 to i1
  br i1 %14, label %19, label %15

15:                                               ; preds = %2
  %16 = load i8, ptr @H5_libterm_g, align 1, !tbaa !10, !range !12, !noundef !13
  %17 = trunc i8 %16 to i1
  %18 = xor i1 %17, true
  br label %19

19:                                               ; preds = %15, %2
  %20 = phi i1 [ true, %2 ], [ %18, %15 ]
  %21 = xor i1 %20, true
  %22 = xor i1 %21, true
  %23 = zext i1 %22 to i32
  %24 = sext i32 %23 to i64
  %25 = call i64 @llvm.expect.i64(i64 %24, i64 1)
  %26 = icmp ne i64 %25, 0
  br i1 %26, label %27, label %108

27:                                               ; preds = %19
  %28 = load ptr, ptr %6, align 8, !tbaa !53
  %29 = icmp ne ptr %28, null
  br i1 %29, label %30, label %106

30:                                               ; preds = %27
  call void @llvm.lifetime.start.p0(i64 8, ptr %9) #9
  br label %31

31:                                               ; preds = %30
  %32 = load ptr, ptr %6, align 8, !tbaa !53
  %33 = load i8, ptr %32, align 1, !tbaa !29
  %34 = zext i8 %33 to i32
  %35 = and i32 %34, 255
  %36 = zext i32 %35 to i64
  store i64 %36, ptr %9, align 8, !tbaa !3
  %37 = load ptr, ptr %6, align 8, !tbaa !53
  %38 = getelementptr inbounds nuw i8, ptr %37, i32 1
  store ptr %38, ptr %6, align 8, !tbaa !53
  %39 = load ptr, ptr %6, align 8, !tbaa !53
  %40 = load i8, ptr %39, align 1, !tbaa !29
  %41 = zext i8 %40 to i32
  %42 = and i32 %41, 255
  %43 = shl i32 %42, 8
  %44 = zext i32 %43 to i64
  %45 = load i64, ptr %9, align 8, !tbaa !3
  %46 = or i64 %45, %44
  store i64 %46, ptr %9, align 8, !tbaa !3
  %47 = load ptr, ptr %6, align 8, !tbaa !53
  %48 = getelementptr inbounds nuw i8, ptr %47, i32 1
  store ptr %48, ptr %6, align 8, !tbaa !53
  %49 = load ptr, ptr %6, align 8, !tbaa !53
  %50 = load i8, ptr %49, align 1, !tbaa !29
  %51 = zext i8 %50 to i32
  %52 = and i32 %51, 255
  %53 = shl i32 %52, 16
  %54 = zext i32 %53 to i64
  %55 = load i64, ptr %9, align 8, !tbaa !3
  %56 = or i64 %55, %54
  store i64 %56, ptr %9, align 8, !tbaa !3
  %57 = load ptr, ptr %6, align 8, !tbaa !53
  %58 = getelementptr inbounds nuw i8, ptr %57, i32 1
  store ptr %58, ptr %6, align 8, !tbaa !53
  %59 = load ptr, ptr %6, align 8, !tbaa !53
  %60 = load i8, ptr %59, align 1, !tbaa !29
  %61 = zext i8 %60 to i32
  %62 = and i32 %61, 255
  %63 = shl i32 %62, 24
  %64 = zext i32 %63 to i64
  %65 = load i64, ptr %9, align 8, !tbaa !3
  %66 = or i64 %65, %64
  store i64 %66, ptr %9, align 8, !tbaa !3
  %67 = load ptr, ptr %6, align 8, !tbaa !53
  %68 = getelementptr inbounds nuw i8, ptr %67, i32 1
  store ptr %68, ptr %6, align 8, !tbaa !53
  br label %69

69:                                               ; preds = %31
  br label %70

70:                                               ; preds = %69
  %71 = load i64, ptr %9, align 8, !tbaa !3
  %72 = icmp ugt i64 %71, 0
  br i1 %72, label %73, label %102

73:                                               ; preds = %70
  call void @llvm.lifetime.start.p0(i64 16, ptr %10) #9
  %74 = getelementptr inbounds nuw %struct.H5VL_blob_specific_args_t, ptr %10, i32 0, i32 0
  store i32 0, ptr %74, align 8, !tbaa !60
  %75 = load ptr, ptr %4, align 8, !tbaa !30
  %76 = load ptr, ptr %6, align 8, !tbaa !53
  %77 = call i32 @H5VL_blob_specific(ptr noundef %75, ptr noundef %76, ptr noundef %10)
  %78 = icmp slt i32 %77, 0
  br i1 %78, label %79, label %98

79:                                               ; preds = %73
  br label %80

80:                                               ; preds = %79
  br label %81

81:                                               ; preds = %80
  br label %82

82:                                               ; preds = %81
  %83 = load i64, ptr @H5E_DATATYPE_g, align 8, !tbaa !3
  %84 = load i64, ptr @H5E_CANTREMOVE_g, align 8, !tbaa !3
  %85 = call i32 (ptr, ptr, i32, i64, i64, ptr, ...) @H5E_printf_stack(ptr noundef @.str, ptr noundef @__func__.H5T__vlen_disk_delete, i32 noundef 921, i64 noundef %83, i64 noundef %84, ptr noundef @.str.29)
  br label %86

86:                                               ; preds = %82
  br label %87

87:                                               ; preds = %86
  store i8 1, ptr %8, align 1, !tbaa !10
  %88 = load i8, ptr %8, align 1, !tbaa !10, !range !12, !noundef !13
  %89 = trunc i8 %88 to i1
  %90 = zext i1 %89 to i8
  store i8 %90, ptr %8, align 1, !tbaa !10
  br label %91

91:                                               ; preds = %87
  br label %92

92:                                               ; preds = %91
  br label %93

93:                                               ; preds = %92
  store i32 -1, ptr %7, align 4, !tbaa !31
  store i32 12, ptr %11, align 4
  br label %99

94:                                               ; No predecessors!
  br label %95

95:                                               ; preds = %94
  br label %96

96:                                               ; preds = %95
  br label %97

97:                                               ; preds = %96
  br label %98

98:                                               ; preds = %97, %73
  store i32 0, ptr %11, align 4
  br label %99

99:                                               ; preds = %93, %98
  call void @llvm.lifetime.end.p0(i64 16, ptr %10) #9
  %100 = load i32, ptr %11, align 4
  switch i32 %100, label %103 [
    i32 0, label %101
  ]

101:                                              ; preds = %99
  br label %102

102:                                              ; preds = %101, %70
  store i32 0, ptr %11, align 4
  br label %103

103:                                              ; preds = %102, %99
  call void @llvm.lifetime.end.p0(i64 8, ptr %9) #9
  %104 = load i32, ptr %11, align 4
  switch i32 %104, label %110 [
    i32 0, label %105
    i32 12, label %107
  ]

105:                                              ; preds = %103
  br label %106

106:                                              ; preds = %105, %27
  br label %107

107:                                              ; preds = %106, %103
  br label %108

108:                                              ; preds = %107, %19
  %109 = load i32, ptr %7, align 4, !tbaa !31
  store i32 %109, ptr %3, align 4
  store i32 1, ptr %11, align 4
  br label %110

110:                                              ; preds = %108, %103
  call void @llvm.lifetime.end.p0(i64 1, ptr %8) #9
  call void @llvm.lifetime.end.p0(i64 4, ptr %7) #9
  call void @llvm.lifetime.end.p0(i64 8, ptr %6) #9
  %111 = load i32, ptr %3, align 4
  ret i32 %111
}

; Function Attrs: nounwind uwtable
define internal i32 @H5T__vlen_disk_setnull(ptr noundef %0, ptr noundef %1, ptr noundef %2) #0 {
  %4 = alloca ptr, align 8
  %5 = alloca ptr, align 8
  %6 = alloca ptr, align 8
  %7 = alloca %struct.H5VL_blob_specific_args_t, align 8
  %8 = alloca ptr, align 8
  %9 = alloca i32, align 4
  %10 = alloca i8, align 1
  store ptr %0, ptr %4, align 8, !tbaa !30
  store ptr %1, ptr %5, align 8, !tbaa !38
  store ptr %2, ptr %6, align 8, !tbaa !38
  call void @llvm.lifetime.start.p0(i64 16, ptr %7) #9
  call void @llvm.lifetime.start.p0(i64 8, ptr %8) #9
  %11 = load ptr, ptr %5, align 8, !tbaa !38
  store ptr %11, ptr %8, align 8, !tbaa !53
  call void @llvm.lifetime.start.p0(i64 4, ptr %9) #9
  store i32 0, ptr %9, align 4, !tbaa !31
  call void @llvm.lifetime.start.p0(i64 1, ptr %10) #9
  store i8 0, ptr %10, align 1, !tbaa !10
  %12 = load i8, ptr @H5T_init_g, align 1, !tbaa !10, !range !12, !noundef !13
  %13 = trunc i8 %12 to i1
  br i1 %13, label %18, label %14

14:                                               ; preds = %3
  %15 = load i8, ptr @H5_libterm_g, align 1, !tbaa !10, !range !12, !noundef !13
  %16 = trunc i8 %15 to i1
  %17 = xor i1 %16, true
  br label %18

18:                                               ; preds = %14, %3
  %19 = phi i1 [ true, %3 ], [ %17, %14 ]
  %20 = xor i1 %19, true
  %21 = xor i1 %20, true
  %22 = zext i1 %21 to i32
  %23 = sext i32 %22 to i64
  %24 = call i64 @llvm.expect.i64(i64 %23, i64 1)
  %25 = icmp ne i64 %24, 0
  br i1 %25, label %26, label %96

26:                                               ; preds = %18
  %27 = load ptr, ptr %6, align 8, !tbaa !38
  %28 = icmp ne ptr %27, null
  br i1 %28, label %29, label %54

29:                                               ; preds = %26
  %30 = load ptr, ptr %4, align 8, !tbaa !30
  %31 = load ptr, ptr %6, align 8, !tbaa !38
  %32 = call i32 @H5T__vlen_disk_delete(ptr noundef %30, ptr noundef %31)
  %33 = icmp slt i32 %32, 0
  br i1 %33, label %34, label %53

34:                                               ; preds = %29
  br label %35

35:                                               ; preds = %34
  br label %36

36:                                               ; preds = %35
  br label %37

37:                                               ; preds = %36
  %38 = load i64, ptr @H5E_DATATYPE_g, align 8, !tbaa !3
  %39 = load i64, ptr @H5E_CANTREMOVE_g, align 8, !tbaa !3
  %40 = call i32 (ptr, ptr, i32, i64, i64, ptr, ...) @H5E_printf_stack(ptr noundef @.str, ptr noundef @__func__.H5T__vlen_disk_setnull, i32 noundef 797, i64 noundef %38, i64 noundef %39, ptr noundef @.str.25)
  br label %41

41:                                               ; preds = %37
  br label %42

42:                                               ; preds = %41
  store i8 1, ptr %10, align 1, !tbaa !10
  %43 = load i8, ptr %10, align 1, !tbaa !10, !range !12, !noundef !13
  %44 = trunc i8 %43 to i1
  %45 = zext i1 %44 to i8
  store i8 %45, ptr %10, align 1, !tbaa !10
  br label %46

46:                                               ; preds = %42
  br label %47

47:                                               ; preds = %46
  br label %48

48:                                               ; preds = %47
  store i32 -1, ptr %9, align 4, !tbaa !31
  br label %95

49:                                               ; No predecessors!
  br label %50

50:                                               ; preds = %49
  br label %51

51:                                               ; preds = %50
  br label %52

52:                                               ; preds = %51
  br label %53

53:                                               ; preds = %52, %29
  br label %54

54:                                               ; preds = %53, %26
  br label %55

55:                                               ; preds = %54
  %56 = load ptr, ptr %8, align 8, !tbaa !53
  store i8 0, ptr %56, align 1, !tbaa !29
  %57 = load ptr, ptr %8, align 8, !tbaa !53
  %58 = getelementptr inbounds nuw i8, ptr %57, i32 1
  store ptr %58, ptr %8, align 8, !tbaa !53
  %59 = load ptr, ptr %8, align 8, !tbaa !53
  store i8 0, ptr %59, align 1, !tbaa !29
  %60 = load ptr, ptr %8, align 8, !tbaa !53
  %61 = getelementptr inbounds nuw i8, ptr %60, i32 1
  store ptr %61, ptr %8, align 8, !tbaa !53
  %62 = load ptr, ptr %8, align 8, !tbaa !53
  store i8 0, ptr %62, align 1, !tbaa !29
  %63 = load ptr, ptr %8, align 8, !tbaa !53
  %64 = getelementptr inbounds nuw i8, ptr %63, i32 1
  store ptr %64, ptr %8, align 8, !tbaa !53
  %65 = load ptr, ptr %8, align 8, !tbaa !53
  store i8 0, ptr %65, align 1, !tbaa !29
  %66 = load ptr, ptr %8, align 8, !tbaa !53
  %67 = getelementptr inbounds nuw i8, ptr %66, i32 1
  store ptr %67, ptr %8, align 8, !tbaa !53
  br label %68

68:                                               ; preds = %55
  br label %69

69:                                               ; preds = %68
  %70 = getelementptr inbounds nuw %struct.H5VL_blob_specific_args_t, ptr %7, i32 0, i32 0
  store i32 2, ptr %70, align 8, !tbaa !60
  %71 = load ptr, ptr %4, align 8, !tbaa !30
  %72 = load ptr, ptr %8, align 8, !tbaa !53
  %73 = call i32 @H5VL_blob_specific(ptr noundef %71, ptr noundef %72, ptr noundef %7)
  %74 = icmp slt i32 %73, 0
  br i1 %74, label %75, label %94

75:                                               ; preds = %69
  br label %76

76:                                               ; preds = %75
  br label %77

77:                                               ; preds = %76
  br label %78

78:                                               ; preds = %77
  %79 = load i64, ptr @H5E_DATATYPE_g, align 8, !tbaa !3
  %80 = load i64, ptr @H5E_CANTSET_g, align 8, !tbaa !3
  %81 = call i32 (ptr, ptr, i32, i64, i64, ptr, ...) @H5E_printf_stack(ptr noundef @.str, ptr noundef @__func__.H5T__vlen_disk_setnull, i32 noundef 807, i64 noundef %79, i64 noundef %80, ptr noundef @.str.26)
  br label %82

82:                                               ; preds = %78
  br label %83

83:                                               ; preds = %82
  store i8 1, ptr %10, align 1, !tbaa !10
  %84 = load i8, ptr %10, align 1, !tbaa !10, !range !12, !noundef !13
  %85 = trunc i8 %84 to i1
  %86 = zext i1 %85 to i8
  store i8 %86, ptr %10, align 1, !tbaa !10
  br label %87

87:                                               ; preds = %83
  br label %88

88:                                               ; preds = %87
  br label %89

89:                                               ; preds = %88
  store i32 -1, ptr %9, align 4, !tbaa !31
  br label %95

90:                                               ; No predecessors!
  br label %91

91:                                               ; preds = %90
  br label %92

92:                                               ; preds = %91
  br label %93

93:                                               ; preds = %92
  br label %94

94:                                               ; preds = %93, %69
  br label %95

95:                                               ; preds = %94, %89, %48
  br label %96

96:                                               ; preds = %95, %18
  %97 = load i32, ptr %9, align 4, !tbaa !31
  call void @llvm.lifetime.end.p0(i64 1, ptr %10) #9
  call void @llvm.lifetime.end.p0(i64 4, ptr %9) #9
  call void @llvm.lifetime.end.p0(i64 8, ptr %8) #9
  call void @llvm.lifetime.end.p0(i64 16, ptr %7) #9
  ret i32 %97
}