; Function Attrs: nounwind uwtable
define internal range(i32 -1, 1) i32 @H5T__vlen_disk_setnull(ptr noundef %0, ptr noundef %1, ptr noundef %2) #0 {
  %4 = alloca %struct.H5VL_blob_specific_args_t, align 8
  %5 = alloca %struct.H5VL_blob_specific_args_t, align 8
  call void @llvm.lifetime.start.p0(i64 16, ptr nonnull %5) #13
  %6 = load i8, ptr @H5T_init_g, align 1, !tbaa !3, !range !7, !noundef !8
  %7 = trunc nuw i8 %6 to i1
  %8 = load i8, ptr @H5_libterm_g, align 1, !range !7
  %9 = trunc nuw i8 %8 to i1
  %10 = xor i1 %9, true
  %11 = select i1 %7, i1 true, i1 %10
  br i1 %11, label %12, label %33, !prof !9

12:                                               ; preds = %3
  %.not = icmp eq ptr %2, null
  br i1 %.not, label %H5T__vlen_disk_delete.exit.thread, label %13

13:                                               ; preds = %12
  %14 = load i32, ptr %2, align 1
  %.not.i = icmp eq i32 %14, 0
  br i1 %.not.i, label %H5T__vlen_disk_delete.exit.thread, label %15

15:                                               ; preds = %13
  %16 = getelementptr inbounds nuw i8, ptr %2, i64 4
  call void @llvm.lifetime.start.p0(i64 16, ptr nonnull %4) #13
  store i32 0, ptr %4, align 8, !tbaa !57
  %17 = call i32 @H5VL_blob_specific(ptr noundef %0, ptr noundef nonnull %16, ptr noundef nonnull %4) #13
  %18 = icmp sgt i32 %17, -1
  br i1 %18, label %H5T__vlen_disk_delete.exit, label %19

H5T__vlen_disk_delete.exit:                       ; preds = %15
  call void @llvm.lifetime.end.p0(i64 16, ptr nonnull %4) #13
  br label %H5T__vlen_disk_delete.exit.thread

19:                                               ; preds = %15
  %20 = load i64, ptr @H5E_DATATYPE_g, align 8, !tbaa !11
  %21 = load i64, ptr @H5E_CANTREMOVE_g, align 8, !tbaa !11
  %22 = call i32 (ptr, ptr, i32, i64, i64, ptr, ...) @H5E_printf_stack(ptr noundef nonnull @.str, ptr noundef nonnull @__func__.H5T__vlen_disk_delete, i32 noundef 921, i64 noundef %20, i64 noundef %21, ptr noundef nonnull @.str.29) #13
  call void @llvm.lifetime.end.p0(i64 16, ptr nonnull %4) #13
  %23 = load i64, ptr @H5E_DATATYPE_g, align 8, !tbaa !11
  %24 = load i64, ptr @H5E_CANTREMOVE_g, align 8, !tbaa !11
  %25 = call i32 (ptr, ptr, i32, i64, i64, ptr, ...) @H5E_printf_stack(ptr noundef nonnull @.str, ptr noundef nonnull @__func__.H5T__vlen_disk_setnull, i32 noundef 797, i64 noundef %23, i64 noundef %24, ptr noundef nonnull @.str.25) #13
  br label %33

H5T__vlen_disk_delete.exit.thread:                ; preds = %13, %H5T__vlen_disk_delete.exit, %12
  %26 = getelementptr inbounds nuw i8, ptr %1, i64 4
  store i32 0, ptr %1, align 1
  store i32 2, ptr %5, align 8, !tbaa !57
  %27 = call i32 @H5VL_blob_specific(ptr noundef %0, ptr noundef nonnull %26, ptr noundef nonnull %5) #13
  %28 = icmp slt i32 %27, 0
  br i1 %28, label %29, label %33

29:                                               ; preds = %H5T__vlen_disk_delete.exit.thread
  %30 = load i64, ptr @H5E_DATATYPE_g, align 8, !tbaa !11
  %31 = load i64, ptr @H5E_CANTSET_g, align 8, !tbaa !11
  %32 = call i32 (ptr, ptr, i32, i64, i64, ptr, ...) @H5E_printf_stack(ptr noundef nonnull @.str, ptr noundef nonnull @__func__.H5T__vlen_disk_setnull, i32 noundef 807, i64 noundef %30, i64 noundef %31, ptr noundef nonnull @.str.26) #13
  br label %33

33:                                               ; preds = %19, %29, %H5T__vlen_disk_delete.exit.thread, %3
  %.0 = phi i32 [ -1, %19 ], [ -1, %29 ], [ 0, %H5T__vlen_disk_delete.exit.thread ], [ 0, %3 ]
  call void @llvm.lifetime.end.p0(i64 16, ptr nonnull %5) #13
  ret i32 %.0
}